Certificate:
    Data:
        Version: 3 (0x2)
        Serial Number:
            23:81:69:1b:08:a6:7f:16:9e:5a:8b:38:69:17:c2:d9
    Signature Algorithm: ecdsa-with-SHA256
        Issuer: C=CN, ST=Chongqing, L=CQ, O=Hedzr Studio., CN=Root CA
        Validity
            Not Before: Jan 15 03:41:54 2020 GMT
            Not After : Jan 12 03:41:54 2030 GMT
        Subject: C=CN, ST=Chongqing, L=CQ, O=Hedzr Studio., CN=localhost
        Subject Public Key Info:
            Public Key Algorithm: id-ecPublicKey
                Public-Key: (256 bit)
                pub: 
                    04:77:1a:6e:89:23:e3:fa:ec:3e:cb:b9:be:8e:f9:
                    8b:c6:fb:a0:8c:e2:5a:52:79:f9:0f:65:99:1f:b9:
                    f9:f6:bc:df:b4:a0:be:57:6a:81:9d:96:a6:c0:b5:
                    16:5a:2e:9d:84:f1:c8:a9:8e:7f:32:0f:d7:c1:78:
                    49:67:a5:45:c8
                ASN1 OID: prime256v1
                NIST CURVE: P-256
        X509v3 extensions:
            X509v3 Key Usage: critical
                Digital Signature, Key Encipherment
            X509v3 Extended Key Usage: 
                TLS Web Server Authentication
            X509v3 Basic Constraints: critical
                CA:FALSE
    Signature Algorithm: ecdsa-with-SHA256
         30:45:02:21:00:f3:98:fb:17:77:2a:ec:43:e4:6c:23:6b:b6:
         f8:e0:bc:df:42:c4:76:e6:d5:1d:be:80:b3:a1:77:cc:c9:c8:
         7b:02:20:1e:7b:8a:be:16:db:8c:f9:28:e9:68:0a:49:35:1e:
         01:e6:53:e4:bf:d8:68:35:4e:83:34:f5:0f:d7:51:e8:4f
-----BEGIN CERTIFICATE-----
MIIB5TCCAYugAwIBAgIQI4FpGwimfxaeWos4aRfC2TAKBggqhkjOPQQDAjBYMQsw
CQYDVQQGEwJDTjESMBAGA1UECBMJQ2hvbmdxaW5nMQswCQYDVQQHEwJDUTEWMBQG
A1UEChMNSGVkenIgU3R1ZGlvLjEQMA4GA1UEAxMHUm9vdCBDQTAeFw0yMDAxMTUw
MzQxNTRaFw0zMDAxMTIwMzQxNTRaMFoxCzAJBgNVBAYTAkNOMRIwEAYDVQQIEwlD
aG9uZ3FpbmcxCzAJBgNVBAcTAkNRMRYwFAYDVQQKEw1IZWR6ciBTdHVkaW8uMRIw
EAYDVQQDEwlsb2NhbGhvc3QwWTATBgcqhkjOPQIBBggqhkjOPQMBBwNCAAR3Gm6J
I+P67D7Lub6O+YvG+6CM4lpSefkPZZkfufn2vN+0oL5XaoGdlqbAtRZaLp2E8cip
jn8yD9fBeElnpUXIozUwMzAOBgNVHQ8BAf8EBAMCBaAwEwYDVR0lBAwwCgYIKwYB
BQUHAwEwDAYDVR0TAQH/BAIwADAKBggqhkjOPQQDAgNIADBFAiEA85j7F3cq7EPk
bCNrtvjgvN9CxHbm1R2+gLOhd8zJyHsCIB57ir4W24z5KOloCkk1HgHmU+S/2Gg1
ToM09Q/XUehP
-----END CERTIFICATE-----
