Certificate:
    Data:
        Version: 3 (0x2)
        Serial Number:
            b8:9f:b1:53:de:eb:54:4f:a1:be:d3:db:2b:ed:8e:bc
    Signature Algorithm: ecdsa-with-SHA256
        Issuer: C=CN, ST=Chongqing, L=CQ, O=Hedzr Studio., CN=Root CA
        Validity
            Not Before: Jan 15 03:41:54 2020 GMT
            Not After : Jan 12 03:41:54 2030 GMT
        Subject: C=CN, ST=Chongqing, L=CQ, O=Hedzr Studio., CN=Root CA
        Subject Public Key Info:
            Public Key Algorithm: id-ecPublicKey
                Public-Key: (256 bit)
                pub: 
                    04:e9:f4:d2:95:e5:02:7f:1b:06:6f:b0:77:ab:d5:
                    aa:8f:64:c0:d8:09:37:f8:19:7a:db:bc:b7:9f:ff:
                    95:65:b4:f7:2a:23:7b:ef:39:76:d6:37:c5:ae:c1:
                    c2:38:f9:b2:55:83:53:82:1d:ce:de:67:90:5c:2a:
                    fb:2c:f2:fb:7d
                ASN1 OID: prime256v1
                NIST CURVE: P-256
        X509v3 extensions:
            X509v3 Key Usage: critical
                Certificate Sign
            X509v3 Extended Key Usage: 
                TLS Web Server Authentication
            X509v3 Basic Constraints: critical
                CA:TRUE
    Signature Algorithm: ecdsa-with-SHA256
         30:44:02:20:22:cf:00:e5:12:e0:13:59:73:c0:f7:b2:f7:cd:
         ac:0d:42:22:2f:47:59:86:5f:16:75:30:82:19:e8:94:d5:7f:
         02:20:27:cd:fc:bf:ae:2f:92:8d:57:75:62:13:e3:95:c9:4f:
         15:9b:27:74:c6:e5:0d:d0:2d:ad:9f:6c:62:12:25:52
-----BEGIN CERTIFICATE-----
MIIB5jCCAY2gAwIBAgIRALifsVPe61RPob7T2yvtjrwwCgYIKoZIzj0EAwIwWDEL
MAkGA1UEBhMCQ04xEjAQBgNVBAgTCUNob25ncWluZzELMAkGA1UEBxMCQ1ExFjAU
BgNVBAoTDUhlZHpyIFN0dWRpby4xEDAOBgNVBAMTB1Jvb3QgQ0EwHhcNMjAwMTE1
MDM0MTU0WhcNMzAwMTEyMDM0MTU0WjBYMQswCQYDVQQGEwJDTjESMBAGA1UECBMJ
Q2hvbmdxaW5nMQswCQYDVQQHEwJDUTEWMBQGA1UEChMNSGVkenIgU3R1ZGlvLjEQ
MA4GA1UEAxMHUm9vdCBDQTBZMBMGByqGSM49AgEGCCqGSM49AwEHA0IABOn00pXl
An8bBm+wd6vVqo9kwNgJN/gZetu8t5//lWW09yoje+85dtY3xa7Bwjj5slWDU4Id
zt5nkFwq+yzy+32jODA2MA4GA1UdDwEB/wQEAwICBDATBgNVHSUEDDAKBggrBgEF
BQcDATAPBgNVHRMBAf8EBTADAQH/MAoGCCqGSM49BAMCA0cAMEQCICLPAOUS4BNZ
c8D3svfNrA1CIi9HWYZfFnUwghnolNV/AiAnzfy/ri+SjVd1YhPjlclPFZsndMbl
DdAtrZ9sYhIlUg==
-----END CERTIFICATE-----
